target datalayout = "e-m:e-p270:32:32-p271:32:32-p272:64:64-i64:64-i128:128-f80:128-n8:16:32:64-S128"
target triple = "x86_64-pc-linux-gnu"

%"class.std::__cxx11::basic_string" = type { %"struct.std::__cxx11::basic_string<char>::_Alloc_hider", i64, %union.anon }
%"struct.std::__cxx11::basic_string<char>::_Alloc_hider" = type { ptr }
%union.anon = type { i64, [8 x i8] }
%"class.std::basic_string_view" = type { i64, ptr }
%"class.std::filesystem::__cxx11::path" = type { %"class.std::__cxx11::basic_string", %"struct.std::filesystem::__cxx11::path::_List" }
%"struct.std::filesystem::__cxx11::path::_List" = type { %"class.std::unique_ptr" }
%"class.std::unique_ptr" = type { %"struct.std::__uniq_ptr_data" }
%"struct.std::__uniq_ptr_data" = type { %"class.std::__uniq_ptr_impl" }
%"class.std::__uniq_ptr_impl" = type { %"class.std::tuple" }
%"class.std::tuple" = type { %"struct.std::_Tuple_impl" }
%"struct.std::_Tuple_impl" = type { %"struct.std::_Head_base.1" }
%"struct.std::_Head_base.1" = type { ptr }
%"class.std::filesystem::file_status" = type { i8, i32 }

; Function Attrs: mustprogress nounwind uwtable
define linkonce_odr noundef signext i8 @_ZNKSt10filesystem11file_status4typeEv(ptr noundef nonnull align 4 dereferenceable(8) %0) #3 comdat align 2 {
  %2 = alloca ptr, align 8
  store ptr %0, ptr %2, align 8, !tbaa !102
  %3 = load ptr, ptr %2, align 8
  %4 = getelementptr inbounds nuw %"class.std::filesystem::file_status", ptr %3, i32 0, i32 0
  %5 = load i8, ptr %4, align 4, !tbaa !104
  ret i8 %5
}

; Function Attrs: inlinehint mustprogress nounwind uwtable
define linkonce_odr noundef zeroext i1 @_ZNSt10filesystem12status_knownENS_11file_statusE(i64 %0) #6 comdat {
  %2 = alloca %"class.std::filesystem::file_status", align 4
  store i64 %0, ptr %2, align 4
  %3 = call noundef signext i8 @_ZNKSt10filesystem11file_status4typeEv(ptr noundef nonnull align 4 dereferenceable(8) %2) #18
  %4 = icmp ne i8 %3, 0
  ret i1 %4
}

; Function Attrs: inlinehint mustprogress nounwind uwtable
define linkonce_odr noundef zeroext i1 @_ZNSt10filesystem15is_regular_fileENS_11file_statusE(i64 %0) #6 comdat {
  %2 = alloca %"class.std::filesystem::file_status", align 4
  store i64 %0, ptr %2, align 4
  %3 = call noundef signext i8 @_ZNKSt10filesystem11file_status4typeEv(ptr noundef nonnull align 4 dereferenceable(8) %2) #18
  %4 = icmp eq i8 %3, 1
  ret i1 %4
}

; Function Attrs: inlinehint mustprogress nounwind uwtable
define linkonce_odr noundef zeroext i1 @_ZNSt10filesystem6existsENS_11file_statusE(i64 %0) #6 comdat {
  %2 = alloca %"class.std::filesystem::file_status", align 4
  %3 = alloca %"class.std::filesystem::file_status", align 4
  store i64 %0, ptr %2, align 4
  call void @llvm.memcpy.p0.p0.i64(ptr align 4 %3, ptr align 4 %2, i64 8, i1 false), !tbaa.struct !98
  %4 = load i64, ptr %3, align 4
  %5 = call noundef zeroext i1 @_ZNSt10filesystem12status_knownENS_11file_statusE(i64 %4) #18
  br i1 %5, label %6, label %9

6:                                                ; preds = %1
  %7 = call noundef signext i8 @_ZNKSt10filesystem11file_status4typeEv(ptr noundef nonnull align 4 dereferenceable(8) %2) #18
  %8 = icmp ne i8 %7, -1
  br label %9

9:                                                ; preds = %6, %1
  %10 = phi i1 [ false, %1 ], [ %8, %6 ]
  ret i1 %10
}

; Function Attrs: inlinehint mustprogress uwtable
define linkonce_odr noundef zeroext i1 @_ZNSt10filesystem15is_regular_fileERKNS_7__cxx114pathE(ptr noundef nonnull align 8 dereferenceable(40) %0) #2 comdat {
  %2 = alloca ptr, align 8
  %3 = alloca %"class.std::filesystem::file_status", align 4
  store ptr %0, ptr %2, align 8, !tbaa !6
  %4 = load ptr, ptr %2, align 8, !tbaa !6
  %5 = call i64 @_ZNSt10filesystem6statusERKNS_7__cxx114pathE(ptr noundef nonnull align 8 dereferenceable(40) %4)
  store i64 %5, ptr %3, align 4
  %6 = load i64, ptr %3, align 4
  %7 = call noundef zeroext i1 @_ZNSt10filesystem15is_regular_fileENS_11file_statusE(i64 %6) #18
  ret i1 %7
}

; Function Attrs: inlinehint mustprogress uwtable
define linkonce_odr noundef zeroext i1 @_ZNSt10filesystem6existsERKNS_7__cxx114pathE(ptr noundef nonnull align 8 dereferenceable(40) %0) #2 comdat {
  %2 = alloca ptr, align 8
  %3 = alloca %"class.std::filesystem::file_status", align 4
  store ptr %0, ptr %2, align 8, !tbaa !6
  %4 = load ptr, ptr %2, align 8, !tbaa !6
  %5 = call i64 @_ZNSt10filesystem6statusERKNS_7__cxx114pathE(ptr noundef nonnull align 8 dereferenceable(40) %4)
  store i64 %5, ptr %3, align 4
  %6 = load i64, ptr %3, align 4
  %7 = call noundef zeroext i1 @_ZNSt10filesystem6existsENS_11file_statusE(i64 %6) #18
  ret i1 %7
}

; Function Attrs: mustprogress uwtable
define noundef zeroext i1 @_ZN3g2o10fileExistsESt17basic_string_viewIcSt11char_traitsIcEEb(i64 %0, ptr %1, i1 noundef zeroext %2) #0 personality ptr @__gxx_personality_v0 {
  %4 = alloca %"class.std::basic_string_view", align 8
  %5 = alloca i8, align 1
  %6 = alloca %"class.std::filesystem::__cxx11::path", align 8
  %7 = alloca ptr, align 8
  %8 = alloca i32, align 4
  %9 = getelementptr inbounds nuw { i64, ptr }, ptr %4, i32 0, i32 0
  store i64 %0, ptr %9, align 8
  %10 = getelementptr inbounds nuw { i64, ptr }, ptr %4, i32 0, i32 1
  store ptr %1, ptr %10, align 8
  %11 = zext i1 %2 to i8
  store i8 %11, ptr %5, align 1, !tbaa !23
  call void @llvm.lifetime.start.p0(i64 40, ptr %6) #18
  call void @_ZNSt10filesystem7__cxx114pathC2ISt17basic_string_viewIcSt11char_traitsIcEES1_EERKT_NS1_6formatE(ptr noundef nonnull align 8 dereferenceable(40) %6, ptr noundef nonnull align 8 dereferenceable(16) %4, i8 noundef zeroext 2)
  %12 = invoke noundef zeroext i1 @_ZNSt10filesystem6existsERKNS_7__cxx114pathE(ptr noundef nonnull align 8 dereferenceable(40) %6)
          to label %13 unwind label %24

13:                                               ; preds = %3
  br i1 %12, label %14, label %22

14:                                               ; preds = %13
  %15 = load i8, ptr %5, align 1, !tbaa !23, !range !25, !noundef !26
  %16 = trunc i8 %15 to i1
  br i1 %16, label %17, label %20

17:                                               ; preds = %14
  %18 = invoke noundef zeroext i1 @_ZNSt10filesystem15is_regular_fileERKNS_7__cxx114pathE(ptr noundef nonnull align 8 dereferenceable(40) %6)
          to label %19 unwind label %24

19:                                               ; preds = %17
  br label %20

20:                                               ; preds = %19, %14
  %21 = phi i1 [ true, %14 ], [ %18, %19 ]
  br label %22

22:                                               ; preds = %20, %13
  %23 = phi i1 [ false, %13 ], [ %21, %20 ]
  call void @_ZNSt10filesystem7__cxx114pathD2Ev(ptr noundef nonnull align 8 dereferenceable(40) %6) #18
  call void @llvm.lifetime.end.p0(i64 40, ptr %6) #18
  ret i1 %23

24:                                               ; preds = %17, %3
  %25 = landingpad { ptr, i32 }
          cleanup
  %26 = extractvalue { ptr, i32 } %25, 0
  store ptr %26, ptr %7, align 8
  %27 = extractvalue { ptr, i32 } %25, 1
  store i32 %27, ptr %8, align 4
  call void @_ZNSt10filesystem7__cxx114pathD2Ev(ptr noundef nonnull align 8 dereferenceable(40) %6) #18
  call void @llvm.lifetime.end.p0(i64 40, ptr %6) #18
  br label %28

28:                                               ; preds = %24
  %29 = load ptr, ptr %7, align 8
  %30 = load i32, ptr %8, align 4
  %31 = insertvalue { ptr, i32 } poison, ptr %29, 0
  %32 = insertvalue { ptr, i32 } %31, i32 %30, 1
  resume { ptr, i32 } %32
}