; Function Attrs: mustprogress uwtable
define noundef zeroext i1 @_ZN3g2o10fileExistsESt17basic_string_viewIcSt11char_traitsIcEEb(i64 %0, ptr %1, i1 noundef zeroext %2) local_unnamed_addr #0 personality ptr @__gxx_personality_v0 {
  %4 = alloca %"class.std::basic_string_view", align 8
  %5 = alloca %"class.std::filesystem::__cxx11::path", align 8
  store i64 %0, ptr %4, align 8
  %6 = getelementptr inbounds nuw i8, ptr %4, i64 8
  store ptr %1, ptr %6, align 8
  call void @llvm.lifetime.start.p0(i64 40, ptr nonnull %5) #19
  call void @_ZNSt10filesystem7__cxx114pathC2ISt17basic_string_viewIcSt11char_traitsIcEES1_EERKT_NS1_6formatE(ptr noundef nonnull align 8 dereferenceable(40) %5, ptr noundef nonnull align 8 dereferenceable(16) %4, i8 noundef zeroext 2)
  %7 = invoke i64 @_ZNSt10filesystem6statusERKNS_7__cxx114pathE(ptr noundef nonnull align 8 dereferenceable(40) %5)
          to label %8 unwind label %29

8:                                                ; preds = %3
  %9 = and i64 %7, 255
  %10 = icmp ne i64 %9, 0
  %11 = icmp ne i64 %9, 255
  %.not5.not7 = and i1 %10, %11
  br i1 %2, label %switch.early.test, label %16

switch.early.test:                                ; preds = %8
  %trunc = trunc i64 %7 to i8
  switch i8 %trunc, label %12 [
    i8 -1, label %16
    i8 0, label %16
  ]

12:                                               ; preds = %switch.early.test
  %13 = invoke i64 @_ZNSt10filesystem6statusERKNS_7__cxx114pathE(ptr noundef nonnull align 8 dereferenceable(40) %5)
          to label %_ZNSt10filesystem15is_regular_fileERKNS_7__cxx114pathE.exit unwind label %29

_ZNSt10filesystem15is_regular_fileERKNS_7__cxx114pathE.exit: ; preds = %12
  %14 = and i64 %13, 255
  %15 = icmp eq i64 %14, 1
  br label %16

16:                                               ; preds = %switch.early.test, %switch.early.test, %8, %_ZNSt10filesystem15is_regular_fileERKNS_7__cxx114pathE.exit
  %17 = phi i1 [ %.not5.not7, %switch.early.test ], [ %15, %_ZNSt10filesystem15is_regular_fileERKNS_7__cxx114pathE.exit ], [ %.not5.not7, %8 ], [ %.not5.not7, %switch.early.test ]
  %18 = getelementptr inbounds nuw i8, ptr %5, i64 32
  %19 = load ptr, ptr %18, align 8, !tbaa !22
  %.not.i.i.i = icmp eq ptr %19, null
  br i1 %.not.i.i.i, label %_ZNSt10filesystem7__cxx114path5_ListD2Ev.exit.i, label %20

20:                                               ; preds = %16
  call void @_ZNKSt10filesystem7__cxx114path5_List13_Impl_deleterclEPNS2_5_ImplE(ptr noundef nonnull align 8 dereferenceable(8) %18, ptr noundef nonnull %19) #19
  br label %_ZNSt10filesystem7__cxx114path5_ListD2Ev.exit.i

_ZNSt10filesystem7__cxx114path5_ListD2Ev.exit.i:  ; preds = %20, %16
  store ptr null, ptr %18, align 8, !tbaa !22
  %21 = load ptr, ptr %5, align 8, !tbaa !9
  %22 = getelementptr inbounds nuw i8, ptr %5, i64 16
  %23 = icmp eq ptr %21, %22
  br i1 %23, label %_ZNKSt7__cxx1112basic_stringIcSt11char_traitsIcESaIcEE11_M_is_localEv.exit.thread.i.i.i, label %_ZNKSt7__cxx1112basic_stringIcSt11char_traitsIcESaIcEE11_M_is_localEv.exit.i.i.i

_ZNKSt7__cxx1112basic_stringIcSt11char_traitsIcESaIcEE11_M_is_localEv.exit.thread.i.i.i: ; preds = %_ZNSt10filesystem7__cxx114path5_ListD2Ev.exit.i
  %24 = getelementptr inbounds nuw i8, ptr %5, i64 8
  %25 = load i64, ptr %24, align 8, !tbaa !18
  %26 = icmp ult i64 %25, 16
  call void @llvm.assume(i1 %26)
  br label %_ZNSt10filesystem7__cxx114pathD2Ev.exit

_ZNKSt7__cxx1112basic_stringIcSt11char_traitsIcESaIcEE11_M_is_localEv.exit.i.i.i: ; preds = %_ZNSt10filesystem7__cxx114path5_ListD2Ev.exit.i
  %27 = load i64, ptr %22, align 8, !tbaa !21
  %28 = add i64 %27, 1
  call void @_ZdlPvm(ptr noundef %21, i64 noundef %28) #21
  br label %_ZNSt10filesystem7__cxx114pathD2Ev.exit

_ZNSt10filesystem7__cxx114pathD2Ev.exit:          ; preds = %_ZNKSt7__cxx1112basic_stringIcSt11char_traitsIcESaIcEE11_M_is_localEv.exit.thread.i.i.i, %_ZNKSt7__cxx1112basic_stringIcSt11char_traitsIcESaIcEE11_M_is_localEv.exit.i.i.i
  call void @llvm.lifetime.end.p0(i64 40, ptr nonnull %5) #19
  ret i1 %17

29:                                               ; preds = %12, %3
  %30 = landingpad { ptr, i32 }
          cleanup
  call void @_ZNSt10filesystem7__cxx114pathD2Ev(ptr noundef nonnull align 8 dereferenceable(40) %5) #19
  call void @llvm.lifetime.end.p0(i64 40, ptr nonnull %5) #19
  resume { ptr, i32 } %30
}